target datalayout = "e-m:e-p270:32:32-p271:32:32-p272:64:64-i64:64-i128:128-f80:128-n8:16:32:64-S128"
target triple = "x86_64-pc-linux-gnu"

%struct._typeobject = type { %struct.PyVarObject, ptr, i64, i64, ptr, i64, ptr, ptr, ptr, ptr, ptr, ptr, ptr, ptr, ptr, ptr, ptr, ptr, ptr, i64, ptr, ptr, ptr, ptr, i64, ptr, ptr, ptr, ptr, ptr, ptr, ptr, ptr, ptr, i64, ptr, ptr, ptr, ptr, ptr, ptr, ptr, ptr, ptr, ptr, ptr, i32, ptr, ptr, i8, i16 }
%struct.PyVarObject = type { %struct._object, i64 }
%struct._object = type { %union.anon, ptr }
%union.anon = type { i64 }
%struct.managed_static_type_state = type { ptr, i32, i32, i32, ptr, ptr, ptr }
%struct._ts = type { ptr, ptr, ptr, i64, %struct.anon.0, i32, i32, i32, i32, i32, i32, i32, i32, ptr, ptr, ptr, ptr, ptr, ptr, ptr, ptr, i32, ptr, i64, i64, ptr, i64, i32, ptr, ptr, ptr, i64, i64, ptr, ptr, ptr, %struct._err_stackitem, ptr, i64, ptr, ptr }
%struct.anon.0 = type { i32 }
%struct._err_stackitem = type { ptr, ptr }
%struct._PyWeakReference = type { %struct._object, ptr, ptr, i64, ptr, ptr, ptr }
%struct.anon = type { i32, i32 }

@_Py_NoneStruct = external global %struct._object, align 8
@_Py_tss_tstate = external thread_local global ptr, align 8

; Function Attrs: inlinehint nounwind uwtable
define internal ptr @_PyThreadState_GET() #1 {
  %1 = call align 8 ptr @llvm.threadlocal.address.p0(ptr align 8 @_Py_tss_tstate)
  %2 = load ptr, ptr %1, align 8, !tbaa !50
  ret ptr %2
}

; Function Attrs: inlinehint nounwind uwtable
define internal i32 @PyType_HasFeature(ptr noundef %0, i64 noundef %1) #1 {
  %3 = alloca ptr, align 8
  %4 = alloca i64, align 8
  %5 = alloca i64, align 8
  store ptr %0, ptr %3, align 8, !tbaa !19
  store i64 %1, ptr %4, align 8, !tbaa !9
  call void @llvm.lifetime.start.p0(i64 8, ptr %5) #6
  %6 = load ptr, ptr %3, align 8, !tbaa !19
  %7 = getelementptr inbounds nuw %struct._typeobject, ptr %6, i32 0, i32 19
  %8 = load i64, ptr %7, align 8, !tbaa !30
  store i64 %8, ptr %5, align 8, !tbaa !9
  %9 = load i64, ptr %5, align 8, !tbaa !9
  %10 = load i64, ptr %4, align 8, !tbaa !9
  %11 = and i64 %9, %10
  %12 = icmp ne i64 %11, 0
  %13 = zext i1 %12 to i32
  call void @llvm.lifetime.end.p0(i64 8, ptr %5) #6
  ret i32 %13
}

; Function Attrs: alwaysinline nounwind uwtable
define internal i32 @_Py_IsImmortal(ptr noundef %0) #4 {
  %2 = alloca ptr, align 8
  store ptr %0, ptr %2, align 8, !tbaa !4
  %3 = load ptr, ptr %2, align 8, !tbaa !4
  %4 = getelementptr inbounds nuw %struct._object, ptr %3, i32 0, i32 0
  %5 = getelementptr inbounds nuw %struct.anon, ptr %4, i32 0, i32 0
  %6 = load i32, ptr %5, align 8, !tbaa !44
  %7 = icmp slt i32 %6, 0
  %8 = zext i1 %7 to i32
  ret i32 %8
}

; Function Attrs: inlinehint nounwind uwtable
define internal ptr @_Py_TYPE(ptr noundef %0) #1 {
  %2 = alloca ptr, align 8
  store ptr %0, ptr %2, align 8, !tbaa !4
  %3 = load ptr, ptr %2, align 8, !tbaa !4
  %4 = getelementptr inbounds nuw %struct._object, ptr %3, i32 0, i32 1
  %5 = load ptr, ptr %4, align 8, !tbaa !29
  ret ptr %5
}

; Function Attrs: inlinehint nounwind uwtable
define internal ptr @_PyStaticType_GET_WEAKREFS_LISTPTR(ptr noundef %0) #1 {
  %2 = alloca ptr, align 8
  store ptr %0, ptr %2, align 8, !tbaa !33
  %3 = load ptr, ptr %2, align 8, !tbaa !33
  %4 = getelementptr inbounds nuw %struct.managed_static_type_state, ptr %3, i32 0, i32 6
  ret ptr %4
}

; Function Attrs: inlinehint nounwind uwtable
define internal ptr @_PyInterpreterState_GET() #1 {
  %1 = alloca ptr, align 8
  call void @llvm.lifetime.start.p0(i64 8, ptr %1) #6
  %2 = call ptr @_PyThreadState_GET()
  store ptr %2, ptr %1, align 8, !tbaa !50
  %3 = load ptr, ptr %1, align 8, !tbaa !50
  %4 = getelementptr inbounds nuw %struct._ts, ptr %3, i32 0, i32 2
  %5 = load ptr, ptr %4, align 8, !tbaa !52
  call void @llvm.lifetime.end.p0(i64 8, ptr %1) #6
  ret ptr %5
}

; Function Attrs: inlinehint nounwind uwtable
define internal i32 @PyType_Check(ptr noundef %0) #1 {
  %2 = alloca ptr, align 8
  store ptr %0, ptr %2, align 8, !tbaa !4
  %3 = load ptr, ptr %2, align 8, !tbaa !4
  %4 = call ptr @_Py_TYPE(ptr noundef %3)
  %5 = call i32 @PyType_HasFeature(ptr noundef %4, i64 noundef 2147483648)
  ret i32 %5
}

; Function Attrs: alwaysinline nounwind uwtable
define internal void @Py_DECREF(ptr noundef %0) #4 {
  %2 = alloca ptr, align 8
  store ptr %0, ptr %2, align 8, !tbaa !4
  %3 = load ptr, ptr %2, align 8, !tbaa !4
  %4 = call i32 @_Py_IsImmortal(ptr noundef %3)
  %5 = icmp ne i32 %4, 0
  br i1 %5, label %6, label %7

6:                                                ; preds = %1
  br label %16

7:                                                ; preds = %1
  %8 = load ptr, ptr %2, align 8, !tbaa !4
  %9 = getelementptr inbounds nuw %struct._object, ptr %8, i32 0, i32 0
  %10 = getelementptr inbounds nuw %struct.anon, ptr %9, i32 0, i32 0
  %11 = load i32, ptr %10, align 8, !tbaa !44
  %12 = add i32 %11, -1
  store i32 %12, ptr %10, align 8, !tbaa !44
  %13 = icmp eq i32 %12, 0
  br i1 %13, label %14, label %16

14:                                               ; preds = %7
  %15 = load ptr, ptr %2, align 8, !tbaa !4
  call void @_Py_Dealloc(ptr noundef %15)
  br label %16

16:                                               ; preds = %6, %14, %7
  ret void
}

; Function Attrs: inlinehint nounwind uwtable
define internal ptr @_PyObject_GET_WEAKREFS_LISTPTR(ptr noundef %0) #1 {
  %2 = alloca ptr, align 8
  %3 = alloca ptr, align 8
  %4 = alloca ptr, align 8
  %5 = alloca ptr, align 8
  %6 = alloca i64, align 8
  store ptr %0, ptr %3, align 8, !tbaa !4
  %7 = load ptr, ptr %3, align 8, !tbaa !4
  %8 = call i32 @PyType_Check(ptr noundef %7)
  %9 = icmp ne i32 %8, 0
  br i1 %9, label %10, label %23

10:                                               ; preds = %1
  %11 = load ptr, ptr %3, align 8, !tbaa !4
  %12 = getelementptr inbounds nuw %struct._typeobject, ptr %11, i32 0, i32 19
  %13 = load i64, ptr %12, align 8, !tbaa !30
  %14 = and i64 %13, 2
  %15 = icmp ne i64 %14, 0
  br i1 %15, label %16, label %23

16:                                               ; preds = %10
  call void @llvm.lifetime.start.p0(i64 8, ptr %4) #6
  %17 = call ptr @_PyInterpreterState_GET()
  store ptr %17, ptr %4, align 8, !tbaa !31
  call void @llvm.lifetime.start.p0(i64 8, ptr %5) #6
  %18 = load ptr, ptr %4, align 8, !tbaa !31
  %19 = load ptr, ptr %3, align 8, !tbaa !4
  %20 = call ptr @_PyStaticType_GetState(ptr noundef %18, ptr noundef %19)
  store ptr %20, ptr %5, align 8, !tbaa !33
  %21 = load ptr, ptr %5, align 8, !tbaa !33
  %22 = call ptr @_PyStaticType_GET_WEAKREFS_LISTPTR(ptr noundef %21)
  store ptr %22, ptr %2, align 8
  call void @llvm.lifetime.end.p0(i64 8, ptr %5) #6
  call void @llvm.lifetime.end.p0(i64 8, ptr %4) #6
  br label %31

23:                                               ; preds = %10, %1
  call void @llvm.lifetime.start.p0(i64 8, ptr %6) #6
  %24 = load ptr, ptr %3, align 8, !tbaa !4
  %25 = call ptr @_Py_TYPE(ptr noundef %24)
  %26 = getelementptr inbounds nuw %struct._typeobject, ptr %25, i32 0, i32 24
  %27 = load i64, ptr %26, align 8, !tbaa !20
  store i64 %27, ptr %6, align 8, !tbaa !9
  %28 = load ptr, ptr %3, align 8, !tbaa !4
  %29 = load i64, ptr %6, align 8, !tbaa !9
  %30 = getelementptr i8, ptr %28, i64 %29
  store ptr %30, ptr %2, align 8
  call void @llvm.lifetime.end.p0(i64 8, ptr %6) #6
  br label %31

31:                                               ; preds = %23, %16
  %32 = load ptr, ptr %2, align 8
  ret ptr %32
}

; Function Attrs: inlinehint nounwind uwtable
define internal void @Py_XDECREF(ptr noundef %0) #1 {
  %2 = alloca ptr, align 8
  store ptr %0, ptr %2, align 8, !tbaa !4
  %3 = load ptr, ptr %2, align 8, !tbaa !4
  %4 = icmp ne ptr %3, null
  br i1 %4, label %5, label %7

5:                                                ; preds = %1
  %6 = load ptr, ptr %2, align 8, !tbaa !4
  call void @Py_DECREF(ptr noundef %6)
  br label %7

7:                                                ; preds = %5, %1
  ret void
}

; Function Attrs: nounwind uwtable
define internal void @clear_weakref_lock_held(ptr noundef %0, ptr noundef %1) #0 {
  %3 = alloca ptr, align 8
  %4 = alloca ptr, align 8
  %5 = alloca ptr, align 8
  store ptr %0, ptr %3, align 8, !tbaa !11
  store ptr %1, ptr %4, align 8, !tbaa !34
  %6 = load ptr, ptr %3, align 8, !tbaa !11
  %7 = getelementptr inbounds nuw %struct._PyWeakReference, ptr %6, i32 0, i32 1
  %8 = load ptr, ptr %7, align 8, !tbaa !36
  %9 = icmp ne ptr %8, @_Py_NoneStruct
  br i1 %9, label %10, label %57

10:                                               ; preds = %2
  call void @llvm.lifetime.start.p0(i64 8, ptr %5) #6
  %11 = load ptr, ptr %3, align 8, !tbaa !11
  %12 = getelementptr inbounds nuw %struct._PyWeakReference, ptr %11, i32 0, i32 1
  %13 = load ptr, ptr %12, align 8, !tbaa !36
  %14 = call ptr @_PyObject_GET_WEAKREFS_LISTPTR(ptr noundef %13)
  store ptr %14, ptr %5, align 8, !tbaa !37
  %15 = load ptr, ptr %5, align 8, !tbaa !37
  %16 = load ptr, ptr %15, align 8, !tbaa !11
  %17 = load ptr, ptr %3, align 8, !tbaa !11
  %18 = icmp eq ptr %16, %17
  br i1 %18, label %19, label %24

19:                                               ; preds = %10
  %20 = load ptr, ptr %3, align 8, !tbaa !11
  %21 = getelementptr inbounds nuw %struct._PyWeakReference, ptr %20, i32 0, i32 5
  %22 = load ptr, ptr %21, align 8, !tbaa !13
  %23 = load ptr, ptr %5, align 8, !tbaa !37
  store ptr %22, ptr %23, align 8, !tbaa !11
  br label %24

24:                                               ; preds = %19, %10
  %25 = load ptr, ptr %3, align 8, !tbaa !11
  %26 = getelementptr inbounds nuw %struct._PyWeakReference, ptr %25, i32 0, i32 1
  store ptr @_Py_NoneStruct, ptr %26, align 8, !tbaa !36
  %27 = load ptr, ptr %3, align 8, !tbaa !11
  %28 = getelementptr inbounds nuw %struct._PyWeakReference, ptr %27, i32 0, i32 4
  %29 = load ptr, ptr %28, align 8, !tbaa !39
  %30 = icmp ne ptr %29, null
  br i1 %30, label %31, label %39

31:                                               ; preds = %24
  %32 = load ptr, ptr %3, align 8, !tbaa !11
  %33 = getelementptr inbounds nuw %struct._PyWeakReference, ptr %32, i32 0, i32 5
  %34 = load ptr, ptr %33, align 8, !tbaa !13
  %35 = load ptr, ptr %3, align 8, !tbaa !11
  %36 = getelementptr inbounds nuw %struct._PyWeakReference, ptr %35, i32 0, i32 4
  %37 = load ptr, ptr %36, align 8, !tbaa !39
  %38 = getelementptr inbounds nuw %struct._PyWeakReference, ptr %37, i32 0, i32 5
  store ptr %34, ptr %38, align 8, !tbaa !13
  br label %39

39:                                               ; preds = %31, %24
  %40 = load ptr, ptr %3, align 8, !tbaa !11
  %41 = getelementptr inbounds nuw %struct._PyWeakReference, ptr %40, i32 0, i32 5
  %42 = load ptr, ptr %41, align 8, !tbaa !13
  %43 = icmp ne ptr %42, null
  br i1 %43, label %44, label %52

44:                                               ; preds = %39
  %45 = load ptr, ptr %3, align 8, !tbaa !11
  %46 = getelementptr inbounds nuw %struct._PyWeakReference, ptr %45, i32 0, i32 4
  %47 = load ptr, ptr %46, align 8, !tbaa !39
  %48 = load ptr, ptr %3, align 8, !tbaa !11
  %49 = getelementptr inbounds nuw %struct._PyWeakReference, ptr %48, i32 0, i32 5
  %50 = load ptr, ptr %49, align 8, !tbaa !13
  %51 = getelementptr inbounds nuw %struct._PyWeakReference, ptr %50, i32 0, i32 4
  store ptr %47, ptr %51, align 8, !tbaa !39
  br label %52

52:                                               ; preds = %44, %39
  %53 = load ptr, ptr %3, align 8, !tbaa !11
  %54 = getelementptr inbounds nuw %struct._PyWeakReference, ptr %53, i32 0, i32 4
  store ptr null, ptr %54, align 8, !tbaa !39
  %55 = load ptr, ptr %3, align 8, !tbaa !11
  %56 = getelementptr inbounds nuw %struct._PyWeakReference, ptr %55, i32 0, i32 5
  store ptr null, ptr %56, align 8, !tbaa !13
  call void @llvm.lifetime.end.p0(i64 8, ptr %5) #6
  br label %57

57:                                               ; preds = %52, %2
  %58 = load ptr, ptr %4, align 8, !tbaa !34
  %59 = icmp ne ptr %58, null
  br i1 %59, label %60, label %67

60:                                               ; preds = %57
  %61 = load ptr, ptr %3, align 8, !tbaa !11
  %62 = getelementptr inbounds nuw %struct._PyWeakReference, ptr %61, i32 0, i32 2
  %63 = load ptr, ptr %62, align 8, !tbaa !40
  %64 = load ptr, ptr %4, align 8, !tbaa !34
  store ptr %63, ptr %64, align 8, !tbaa !4
  %65 = load ptr, ptr %3, align 8, !tbaa !11
  %66 = getelementptr inbounds nuw %struct._PyWeakReference, ptr %65, i32 0, i32 2
  store ptr null, ptr %66, align 8, !tbaa !40
  br label %67

67:                                               ; preds = %60, %57
  ret void
}

; Function Attrs: nounwind uwtable
define internal void @clear_weakref(ptr noundef %0) #0 {
  %2 = alloca ptr, align 8
  %3 = alloca ptr, align 8
  %4 = alloca ptr, align 8
  store ptr %0, ptr %2, align 8, !tbaa !4
  call void @llvm.lifetime.start.p0(i64 8, ptr %3) #6
  %5 = load ptr, ptr %2, align 8, !tbaa !4
  store ptr %5, ptr %3, align 8, !tbaa !11
  call void @llvm.lifetime.start.p0(i64 8, ptr %4) #6
  store ptr null, ptr %4, align 8, !tbaa !4
  %6 = load ptr, ptr %3, align 8, !tbaa !11
  call void @clear_weakref_lock_held(ptr noundef %6, ptr noundef %4)
  %7 = load ptr, ptr %4, align 8, !tbaa !4
  call void @Py_XDECREF(ptr noundef %7)
  call void @llvm.lifetime.end.p0(i64 8, ptr %4) #6
  call void @llvm.lifetime.end.p0(i64 8, ptr %3) #6
  ret void
}

; Function Attrs: nounwind uwtable
define internal void @proxy_dealloc(ptr noundef %0) #0 {
  %2 = alloca ptr, align 8
  store ptr %0, ptr %2, align 8, !tbaa !4
  %3 = load ptr, ptr %2, align 8, !tbaa !4
  call void @PyObject_GC_UnTrack(ptr noundef %3)
  %4 = load ptr, ptr %2, align 8, !tbaa !4
  call void @clear_weakref(ptr noundef %4)
  %5 = load ptr, ptr %2, align 8, !tbaa !4
  call void @PyObject_GC_Del(ptr noundef %5)
  ret void
}